target datalayout = "e-m:e-p270:32:32-p271:32:32-p272:64:64-i64:64-i128:128-f80:128-n8:16:32:64-S128"
target triple = "x86_64-pc-linux-gnu"

%struct._generic_SUNAdaptController = type { ptr, ptr, ptr }

; Function Attrs: nounwind uwtable
define void @SUNAdaptController_DestroyEmpty(ptr noundef %0) #0 {
  %2 = alloca ptr, align 8
  store ptr %0, ptr %2, align 8, !tbaa !8
  %3 = load ptr, ptr %2, align 8, !tbaa !8
  %4 = icmp eq ptr %3, null
  br i1 %4, label %5, label %6

5:                                                ; preds = %1
  br label %19

6:                                                ; preds = %1
  %7 = load ptr, ptr %2, align 8, !tbaa !8
  %8 = getelementptr inbounds nuw %struct._generic_SUNAdaptController, ptr %7, i32 0, i32 1
  %9 = load ptr, ptr %8, align 8, !tbaa !24
  %10 = icmp ne ptr %9, null
  br i1 %10, label %11, label %15

11:                                               ; preds = %6
  %12 = load ptr, ptr %2, align 8, !tbaa !8
  %13 = getelementptr inbounds nuw %struct._generic_SUNAdaptController, ptr %12, i32 0, i32 1
  %14 = load ptr, ptr %13, align 8, !tbaa !24
  call void @free(ptr noundef %14) #4
  br label %15

15:                                               ; preds = %11, %6
  %16 = load ptr, ptr %2, align 8, !tbaa !8
  %17 = getelementptr inbounds nuw %struct._generic_SUNAdaptController, ptr %16, i32 0, i32 1
  store ptr null, ptr %17, align 8, !tbaa !24
  %18 = load ptr, ptr %2, align 8, !tbaa !8
  call void @free(ptr noundef %18) #4
  br label %19

19:                                               ; preds = %15, %5
  ret void
}